target datalayout = "e-m:e-p270:32:32-p271:32:32-p272:64:64-i64:64-i128:128-f80:128-n8:16:32:64-S128"
target triple = "x86_64-pc-linux-gnu"

%struct._timelib_rel_time = type { i64, i64, i64, i64, i64, i64, i64, i32, i32, i32, i32, i64, %struct.anon, i32, i32 }
%struct.anon = type { i32, i64 }
%struct._timelib_time = type { i64, i64, i64, i64, i64, i64, i64, i32, ptr, ptr, i32, %struct._timelib_rel_time, i64, i32, i32, i32, i32, i32, i32, i32, i32, i32 }

; Function Attrs: nounwind uwtable
define hidden i64 @timelib_epoch_days_from_time(ptr noundef %0) #0 {
  %2 = alloca ptr, align 8
  %3 = alloca i64, align 8
  %4 = alloca i64, align 8
  %5 = alloca i64, align 8
  %6 = alloca i64, align 8
  %7 = alloca i64, align 8
  store ptr %0, ptr %2, align 8, !tbaa !4
  call void @llvm.lifetime.start.p0(i64 8, ptr %3) #5
  %8 = load ptr, ptr %2, align 8, !tbaa !4
  %9 = getelementptr inbounds nuw %struct._timelib_time, ptr %8, i32 0, i32 0
  %10 = load i64, ptr %9, align 8, !tbaa !25
  store i64 %10, ptr %3, align 8, !tbaa !16
  call void @llvm.lifetime.start.p0(i64 8, ptr %4) #5
  call void @llvm.lifetime.start.p0(i64 8, ptr %5) #5
  call void @llvm.lifetime.start.p0(i64 8, ptr %6) #5
  call void @llvm.lifetime.start.p0(i64 8, ptr %7) #5
  %11 = load ptr, ptr %2, align 8, !tbaa !4
  %12 = getelementptr inbounds nuw %struct._timelib_time, ptr %11, i32 0, i32 1
  %13 = load i64, ptr %12, align 8, !tbaa !26
  %14 = icmp sle i64 %13, 2
  %15 = zext i1 %14 to i32
  %16 = sext i32 %15 to i64
  %17 = load i64, ptr %3, align 8, !tbaa !16
  %18 = sub i64 %17, %16
  store i64 %18, ptr %3, align 8, !tbaa !16
  %19 = load i64, ptr %3, align 8, !tbaa !16
  %20 = icmp sge i64 %19, 0
  br i1 %20, label %21, label %23

21:                                               ; preds = %1
  %22 = load i64, ptr %3, align 8, !tbaa !16
  br label %26

23:                                               ; preds = %1
  %24 = load i64, ptr %3, align 8, !tbaa !16
  %25 = sub i64 %24, 399
  br label %26

26:                                               ; preds = %23, %21
  %27 = phi i64 [ %22, %21 ], [ %25, %23 ]
  %28 = sdiv i64 %27, 400
  store i64 %28, ptr %4, align 8, !tbaa !16
  %29 = load i64, ptr %3, align 8, !tbaa !16
  %30 = load i64, ptr %4, align 8, !tbaa !16
  %31 = mul i64 %30, 400
  %32 = sub i64 %29, %31
  store i64 %32, ptr %5, align 8, !tbaa !16
  %33 = load ptr, ptr %2, align 8, !tbaa !4
  %34 = getelementptr inbounds nuw %struct._timelib_time, ptr %33, i32 0, i32 1
  %35 = load i64, ptr %34, align 8, !tbaa !26
  %36 = load ptr, ptr %2, align 8, !tbaa !4
  %37 = getelementptr inbounds nuw %struct._timelib_time, ptr %36, i32 0, i32 1
  %38 = load i64, ptr %37, align 8, !tbaa !26
  %39 = icmp sgt i64 %38, 2
  %40 = select i1 %39, i32 -3, i32 9
  %41 = sext i32 %40 to i64
  %42 = add i64 %35, %41
  %43 = mul i64 153, %42
  %44 = add i64 %43, 2
  %45 = sdiv i64 %44, 5
  %46 = load ptr, ptr %2, align 8, !tbaa !4
  %47 = getelementptr inbounds nuw %struct._timelib_time, ptr %46, i32 0, i32 2
  %48 = load i64, ptr %47, align 8, !tbaa !27
  %49 = add i64 %45, %48
  %50 = sub i64 %49, 1
  store i64 %50, ptr %6, align 8, !tbaa !16
  %51 = load i64, ptr %5, align 8, !tbaa !16
  %52 = mul i64 %51, 365
  %53 = load i64, ptr %5, align 8, !tbaa !16
  %54 = sdiv i64 %53, 4
  %55 = add i64 %52, %54
  %56 = load i64, ptr %5, align 8, !tbaa !16
  %57 = sdiv i64 %56, 100
  %58 = sub i64 %55, %57
  %59 = load i64, ptr %6, align 8, !tbaa !16
  %60 = add i64 %58, %59
  store i64 %60, ptr %7, align 8, !tbaa !16
  %61 = load i64, ptr %4, align 8, !tbaa !16
  %62 = mul i64 %61, 146097
  %63 = load i64, ptr %7, align 8, !tbaa !16
  %64 = add i64 %62, %63
  %65 = sub i64 %64, 719468
  call void @llvm.lifetime.end.p0(i64 8, ptr %7) #5
  call void @llvm.lifetime.end.p0(i64 8, ptr %6) #5
  call void @llvm.lifetime.end.p0(i64 8, ptr %5) #5
  call void @llvm.lifetime.end.p0(i64 8, ptr %4) #5
  call void @llvm.lifetime.end.p0(i64 8, ptr %3) #5
  ret i64 %65
}