; Function Attrs: mustprogress nofree norecurse nosync nounwind willreturn memory(argmem: read) uwtable
define hidden i64 @timelib_epoch_days_from_time(ptr noundef readonly captures(none) %0) local_unnamed_addr #1 {
  %2 = load i64, ptr %0, align 8, !tbaa !19
  %3 = getelementptr inbounds nuw i8, ptr %0, i64 8
  %4 = load i64, ptr %3, align 8, !tbaa !21
  %5 = icmp slt i64 %4, 3
  %.neg = sext i1 %5 to i64
  %6 = add i64 %2, %.neg
  %7 = add i64 %6, -399
  %8 = icmp slt i64 %6, 0
  %9 = select i1 %8, i64 %7, i64 %6
  %10 = sdiv i64 %9, 400
  %.neg16 = mul nsw i64 %10, -400
  %11 = add i64 %.neg16, %6
  %12 = icmp sgt i64 %4, 2
  %13 = select i1 %12, i64 -3, i64 9
  %14 = add i64 %13, %4
  %15 = mul i64 %14, 153
  %16 = add i64 %15, 2
  %17 = sdiv i64 %16, 5
  %18 = getelementptr inbounds nuw i8, ptr %0, i64 16
  %19 = load i64, ptr %18, align 8, !tbaa !20
  %20 = mul i64 %11, 365
  %21 = sdiv i64 %11, 4
  %.neg17 = sdiv i64 %11, -100
  %22 = mul i64 %10, 146097
  %23 = add i64 %19, -719469
  %24 = add i64 %23, %17
  %25 = add i64 %24, %22
  %26 = add i64 %25, %21
  %27 = add i64 %26, %20
  %28 = add i64 %27, %.neg17
  ret i64 %28
}